; Function Attrs: mustprogress uwtable
define dso_local noundef zeroext i1 @_ZNK8V3Number11isFourStateEv(ptr noundef nonnull align 8 dereferenceable(56) %0) #3 align 2 {
  %2 = getelementptr inbounds nuw i8, ptr %0, i64 36
  %3 = load i8, ptr %2, align 4, !tbaa !40
  %4 = and i8 %3, -2
  %switch7 = icmp eq i8 %4, 2
  br i1 %switch7, label %.loopexit, label %.preheader

.preheader:                                       ; preds = %1
  %5 = getelementptr inbounds nuw i8, ptr %0, i64 32
  %6 = load i32, ptr %5, align 8, !tbaa !39
  %7 = add nsw i32 %6, 31
  %8 = sdiv i32 %7, 32
  %.not89 = icmp sgt i32 %6, 0
  br i1 %.not89, label %.lr.ph, label %.loopexit

.lr.ph:                                           ; preds = %.preheader
  %9 = add i8 %3, -1
  %spec.select.i.i = icmp ult i8 %9, 2
  %10 = icmp samesign ult i32 %6, 129
  %11 = load ptr, ptr %0, align 8
  %spec.select.i = select i1 %10, ptr %0, ptr %11
  br i1 %spec.select.i.i, label %_ZNK12V3NumberData3numEv.exit.preheader, label %14, !prof !41

_ZNK12V3NumberData3numEv.exit.preheader:          ; preds = %.lr.ph
  %smax = tail call i32 @llvm.smax.i32(i32 %8, i32 1)
  %wide.trip.count = zext nneg i32 %smax to i64
  br label %_ZNK12V3NumberData3numEv.exit

_ZNK12V3NumberData3numEv.exit:                    ; preds = %_ZNK12V3NumberData3numEv.exit, %_ZNK12V3NumberData3numEv.exit.preheader
  %indvars.iv = phi i64 [ 0, %_ZNK12V3NumberData3numEv.exit.preheader ], [ %indvars.iv.next, %_ZNK12V3NumberData3numEv.exit ]
  %12 = getelementptr inbounds nuw %"struct.V3NumberData::ValueAndX", ptr %spec.select.i, i64 %indvars.iv, i32 1
  %13 = load i32, ptr %12, align 4, !tbaa !124
  %.not.not = icmp ne i32 %13, 0
  %indvars.iv.next = add nuw nsw i64 %indvars.iv, 1
  %exitcond.not = icmp eq i64 %indvars.iv.next, %wide.trip.count
  %or.cond = select i1 %.not.not, i1 true, i1 %exitcond.not
  br i1 %or.cond, label %.loopexit, label %_ZNK12V3NumberData3numEv.exit, !llvm.loop !220

14:                                               ; preds = %.lr.ph
  %15 = tail call noundef nonnull align 8 dereferenceable(112) ptr @_ZN7V3Error19v3errorPrepFileLineB5cxx11E11V3ErrorCodePKci(i8 4, ptr noundef nonnull @.str.95, i32 noundef 198)
  %16 = tail call noundef nonnull align 8 dereferenceable(112) ptr @_ZN7V3Error10v3errorStrB5cxx11Ev()
  %17 = tail call noundef nonnull align 8 dereferenceable(8) ptr @_ZStlsISt11char_traitsIcEERSt13basic_ostreamIcT_ES5_PKc(ptr noundef nonnull align 8 dereferenceable(8) %16, ptr noundef nonnull @.str.96)
  %18 = tail call noundef nonnull align 8 dereferenceable(8) ptr @_ZlsRSoRKN12V3NumberData16V3NumberDataTypeE(ptr noundef nonnull align 8 dereferenceable(8) %17, ptr noundef nonnull align 1 dereferenceable(1) %2)
  tail call void @_Z15v3errorEndFatalRNSt7__cxx1119basic_ostringstreamIcSt11char_traitsIcESaIcEEE(ptr noundef nonnull align 8 dereferenceable(112) %18) #34
  unreachable

.loopexit:                                        ; preds = %_ZNK12V3NumberData3numEv.exit, %.preheader, %1
  %.06 = phi i1 [ false, %1 ], [ false, %.preheader ], [ %.not.not, %_ZNK12V3NumberData3numEv.exit ]
  ret i1 %.06
}